target datalayout = "e-m:e-p270:32:32-p271:32:32-p272:64:64-i64:64-i128:128-f80:128-n8:16:32:64-S128"
target triple = "x86_64-pc-linux-gnu"

%struct._ir_hashtab = type { ptr, i32, i32, i32, i32 }

; Function Attrs: nounwind uwtable
define internal i32 @ir_hashtab_hash_size(i32 noundef %0) #0 {
  %2 = alloca i32, align 4
  store i32 %0, ptr %2, align 4
  %3 = load i32, ptr %2, align 4
  %4 = sub i32 %3, 1
  store i32 %4, ptr %2, align 4
  %5 = load i32, ptr %2, align 4
  %6 = lshr i32 %5, 1
  %7 = load i32, ptr %2, align 4
  %8 = or i32 %7, %6
  store i32 %8, ptr %2, align 4
  %9 = load i32, ptr %2, align 4
  %10 = lshr i32 %9, 2
  %11 = load i32, ptr %2, align 4
  %12 = or i32 %11, %10
  store i32 %12, ptr %2, align 4
  %13 = load i32, ptr %2, align 4
  %14 = lshr i32 %13, 4
  %15 = load i32, ptr %2, align 4
  %16 = or i32 %15, %14
  store i32 %16, ptr %2, align 4
  %17 = load i32, ptr %2, align 4
  %18 = lshr i32 %17, 8
  %19 = load i32, ptr %2, align 4
  %20 = or i32 %19, %18
  store i32 %20, ptr %2, align 4
  %21 = load i32, ptr %2, align 4
  %22 = lshr i32 %21, 16
  %23 = load i32, ptr %2, align 4
  %24 = or i32 %23, %22
  store i32 %24, ptr %2, align 4
  %25 = load i32, ptr %2, align 4
  %26 = add i32 %25, 1
  %27 = icmp ugt i32 %26, 4
  br i1 %27, label %28, label %31

28:                                               ; preds = %1
  %29 = load i32, ptr %2, align 4
  %30 = add i32 %29, 1
  br label %32

31:                                               ; preds = %1
  br label %32

32:                                               ; preds = %31, %28
  %33 = phi i32 [ %30, %28 ], [ 4, %31 ]
  ret i32 %33
}

; Function Attrs: nounwind uwtable
define hidden void @ir_addrtab_init(ptr noundef %0, i32 noundef %1) #0 {
  %3 = alloca ptr, align 8
  %4 = alloca i32, align 4
  %5 = alloca i32, align 4
  %6 = alloca ptr, align 8
  store ptr %0, ptr %3, align 8
  store i32 %1, ptr %4, align 4
  %7 = load i32, ptr %4, align 4
  %8 = call i32 @ir_hashtab_hash_size(i32 noundef %7)
  store i32 %8, ptr %5, align 4
  %9 = load i32, ptr %5, align 4
  %10 = zext i32 %9 to i64
  %11 = mul i64 %10, 4
  %12 = load i32, ptr %4, align 4
  %13 = zext i32 %12 to i64
  %14 = mul i64 %13, 16
  %15 = add i64 %11, %14
  %16 = call i1 @llvm.is.constant.i64(i64 %15)
  br i1 %16, label %17, label %436

17:                                               ; preds = %2
  %18 = load i32, ptr %5, align 4
  %19 = zext i32 %18 to i64
  %20 = mul i64 %19, 4
  %21 = load i32, ptr %4, align 4
  %22 = zext i32 %21 to i64
  %23 = mul i64 %22, 16
  %24 = add i64 %20, %23
  %25 = icmp ule i64 %24, 8
  br i1 %25, label %26, label %28

26:                                               ; preds = %17
  %27 = call noalias ptr @_emalloc_8()
  br label %434

28:                                               ; preds = %17
  %29 = load i32, ptr %5, align 4
  %30 = zext i32 %29 to i64
  %31 = mul i64 %30, 4
  %32 = load i32, ptr %4, align 4
  %33 = zext i32 %32 to i64
  %34 = mul i64 %33, 16
  %35 = add i64 %31, %34
  %36 = icmp ule i64 %35, 16
  br i1 %36, label %37, label %39

37:                                               ; preds = %28
  %38 = call noalias ptr @_emalloc_16()
  br label %432

39:                                               ; preds = %28
  %40 = load i32, ptr %5, align 4
  %41 = zext i32 %40 to i64
  %42 = mul i64 %41, 4
  %43 = load i32, ptr %4, align 4
  %44 = zext i32 %43 to i64
  %45 = mul i64 %44, 16
  %46 = add i64 %42, %45
  %47 = icmp ule i64 %46, 24
  br i1 %47, label %48, label %50

48:                                               ; preds = %39
  %49 = call noalias ptr @_emalloc_24()
  br label %430

50:                                               ; preds = %39
  %51 = load i32, ptr %5, align 4
  %52 = zext i32 %51 to i64
  %53 = mul i64 %52, 4
  %54 = load i32, ptr %4, align 4
  %55 = zext i32 %54 to i64
  %56 = mul i64 %55, 16
  %57 = add i64 %53, %56
  %58 = icmp ule i64 %57, 32
  br i1 %58, label %59, label %61

59:                                               ; preds = %50
  %60 = call noalias ptr @_emalloc_32()
  br label %428

61:                                               ; preds = %50
  %62 = load i32, ptr %5, align 4
  %63 = zext i32 %62 to i64
  %64 = mul i64 %63, 4
  %65 = load i32, ptr %4, align 4
  %66 = zext i32 %65 to i64
  %67 = mul i64 %66, 16
  %68 = add i64 %64, %67
  %69 = icmp ule i64 %68, 40
  br i1 %69, label %70, label %72

70:                                               ; preds = %61
  %71 = call noalias ptr @_emalloc_40()
  br label %426

72:                                               ; preds = %61
  %73 = load i32, ptr %5, align 4
  %74 = zext i32 %73 to i64
  %75 = mul i64 %74, 4
  %76 = load i32, ptr %4, align 4
  %77 = zext i32 %76 to i64
  %78 = mul i64 %77, 16
  %79 = add i64 %75, %78
  %80 = icmp ule i64 %79, 48
  br i1 %80, label %81, label %83

81:                                               ; preds = %72
  %82 = call noalias ptr @_emalloc_48()
  br label %424

83:                                               ; preds = %72
  %84 = load i32, ptr %5, align 4
  %85 = zext i32 %84 to i64
  %86 = mul i64 %85, 4
  %87 = load i32, ptr %4, align 4
  %88 = zext i32 %87 to i64
  %89 = mul i64 %88, 16
  %90 = add i64 %86, %89
  %91 = icmp ule i64 %90, 56
  br i1 %91, label %92, label %94

92:                                               ; preds = %83
  %93 = call noalias ptr @_emalloc_56()
  br label %422

94:                                               ; preds = %83
  %95 = load i32, ptr %5, align 4
  %96 = zext i32 %95 to i64
  %97 = mul i64 %96, 4
  %98 = load i32, ptr %4, align 4
  %99 = zext i32 %98 to i64
  %100 = mul i64 %99, 16
  %101 = add i64 %97, %100
  %102 = icmp ule i64 %101, 64
  br i1 %102, label %103, label %105

103:                                              ; preds = %94
  %104 = call noalias ptr @_emalloc_64()
  br label %420

105:                                              ; preds = %94
  %106 = load i32, ptr %5, align 4
  %107 = zext i32 %106 to i64
  %108 = mul i64 %107, 4
  %109 = load i32, ptr %4, align 4
  %110 = zext i32 %109 to i64
  %111 = mul i64 %110, 16
  %112 = add i64 %108, %111
  %113 = icmp ule i64 %112, 80
  br i1 %113, label %114, label %116

114:                                              ; preds = %105
  %115 = call noalias ptr @_emalloc_80()
  br label %418

116:                                              ; preds = %105
  %117 = load i32, ptr %5, align 4
  %118 = zext i32 %117 to i64
  %119 = mul i64 %118, 4
  %120 = load i32, ptr %4, align 4
  %121 = zext i32 %120 to i64
  %122 = mul i64 %121, 16
  %123 = add i64 %119, %122
  %124 = icmp ule i64 %123, 96
  br i1 %124, label %125, label %127

125:                                              ; preds = %116
  %126 = call noalias ptr @_emalloc_96()
  br label %416

127:                                              ; preds = %116
  %128 = load i32, ptr %5, align 4
  %129 = zext i32 %128 to i64
  %130 = mul i64 %129, 4
  %131 = load i32, ptr %4, align 4
  %132 = zext i32 %131 to i64
  %133 = mul i64 %132, 16
  %134 = add i64 %130, %133
  %135 = icmp ule i64 %134, 112
  br i1 %135, label %136, label %138

136:                                              ; preds = %127
  %137 = call noalias ptr @_emalloc_112()
  br label %414

138:                                              ; preds = %127
  %139 = load i32, ptr %5, align 4
  %140 = zext i32 %139 to i64
  %141 = mul i64 %140, 4
  %142 = load i32, ptr %4, align 4
  %143 = zext i32 %142 to i64
  %144 = mul i64 %143, 16
  %145 = add i64 %141, %144
  %146 = icmp ule i64 %145, 128
  br i1 %146, label %147, label %149

147:                                              ; preds = %138
  %148 = call noalias ptr @_emalloc_128()
  br label %412

149:                                              ; preds = %138
  %150 = load i32, ptr %5, align 4
  %151 = zext i32 %150 to i64
  %152 = mul i64 %151, 4
  %153 = load i32, ptr %4, align 4
  %154 = zext i32 %153 to i64
  %155 = mul i64 %154, 16
  %156 = add i64 %152, %155
  %157 = icmp ule i64 %156, 160
  br i1 %157, label %158, label %160

158:                                              ; preds = %149
  %159 = call noalias ptr @_emalloc_160()
  br label %410

160:                                              ; preds = %149
  %161 = load i32, ptr %5, align 4
  %162 = zext i32 %161 to i64
  %163 = mul i64 %162, 4
  %164 = load i32, ptr %4, align 4
  %165 = zext i32 %164 to i64
  %166 = mul i64 %165, 16
  %167 = add i64 %163, %166
  %168 = icmp ule i64 %167, 192
  br i1 %168, label %169, label %171

169:                                              ; preds = %160
  %170 = call noalias ptr @_emalloc_192()
  br label %408

171:                                              ; preds = %160
  %172 = load i32, ptr %5, align 4
  %173 = zext i32 %172 to i64
  %174 = mul i64 %173, 4
  %175 = load i32, ptr %4, align 4
  %176 = zext i32 %175 to i64
  %177 = mul i64 %176, 16
  %178 = add i64 %174, %177
  %179 = icmp ule i64 %178, 224
  br i1 %179, label %180, label %182

180:                                              ; preds = %171
  %181 = call noalias ptr @_emalloc_224()
  br label %406

182:                                              ; preds = %171
  %183 = load i32, ptr %5, align 4
  %184 = zext i32 %183 to i64
  %185 = mul i64 %184, 4
  %186 = load i32, ptr %4, align 4
  %187 = zext i32 %186 to i64
  %188 = mul i64 %187, 16
  %189 = add i64 %185, %188
  %190 = icmp ule i64 %189, 256
  br i1 %190, label %191, label %193

191:                                              ; preds = %182
  %192 = call noalias ptr @_emalloc_256()
  br label %404

193:                                              ; preds = %182
  %194 = load i32, ptr %5, align 4
  %195 = zext i32 %194 to i64
  %196 = mul i64 %195, 4
  %197 = load i32, ptr %4, align 4
  %198 = zext i32 %197 to i64
  %199 = mul i64 %198, 16
  %200 = add i64 %196, %199
  %201 = icmp ule i64 %200, 320
  br i1 %201, label %202, label %204

202:                                              ; preds = %193
  %203 = call noalias ptr @_emalloc_320()
  br label %402

204:                                              ; preds = %193
  %205 = load i32, ptr %5, align 4
  %206 = zext i32 %205 to i64
  %207 = mul i64 %206, 4
  %208 = load i32, ptr %4, align 4
  %209 = zext i32 %208 to i64
  %210 = mul i64 %209, 16
  %211 = add i64 %207, %210
  %212 = icmp ule i64 %211, 384
  br i1 %212, label %213, label %215

213:                                              ; preds = %204
  %214 = call noalias ptr @_emalloc_384()
  br label %400

215:                                              ; preds = %204
  %216 = load i32, ptr %5, align 4
  %217 = zext i32 %216 to i64
  %218 = mul i64 %217, 4
  %219 = load i32, ptr %4, align 4
  %220 = zext i32 %219 to i64
  %221 = mul i64 %220, 16
  %222 = add i64 %218, %221
  %223 = icmp ule i64 %222, 448
  br i1 %223, label %224, label %226

224:                                              ; preds = %215
  %225 = call noalias ptr @_emalloc_448()
  br label %398

226:                                              ; preds = %215
  %227 = load i32, ptr %5, align 4
  %228 = zext i32 %227 to i64
  %229 = mul i64 %228, 4
  %230 = load i32, ptr %4, align 4
  %231 = zext i32 %230 to i64
  %232 = mul i64 %231, 16
  %233 = add i64 %229, %232
  %234 = icmp ule i64 %233, 512
  br i1 %234, label %235, label %237

235:                                              ; preds = %226
  %236 = call noalias ptr @_emalloc_512()
  br label %396

237:                                              ; preds = %226
  %238 = load i32, ptr %5, align 4
  %239 = zext i32 %238 to i64
  %240 = mul i64 %239, 4
  %241 = load i32, ptr %4, align 4
  %242 = zext i32 %241 to i64
  %243 = mul i64 %242, 16
  %244 = add i64 %240, %243
  %245 = icmp ule i64 %244, 640
  br i1 %245, label %246, label %248

246:                                              ; preds = %237
  %247 = call noalias ptr @_emalloc_640()
  br label %394

248:                                              ; preds = %237
  %249 = load i32, ptr %5, align 4
  %250 = zext i32 %249 to i64
  %251 = mul i64 %250, 4
  %252 = load i32, ptr %4, align 4
  %253 = zext i32 %252 to i64
  %254 = mul i64 %253, 16
  %255 = add i64 %251, %254
  %256 = icmp ule i64 %255, 768
  br i1 %256, label %257, label %259

257:                                              ; preds = %248
  %258 = call noalias ptr @_emalloc_768()
  br label %392

259:                                              ; preds = %248
  %260 = load i32, ptr %5, align 4
  %261 = zext i32 %260 to i64
  %262 = mul i64 %261, 4
  %263 = load i32, ptr %4, align 4
  %264 = zext i32 %263 to i64
  %265 = mul i64 %264, 16
  %266 = add i64 %262, %265
  %267 = icmp ule i64 %266, 896
  br i1 %267, label %268, label %270

268:                                              ; preds = %259
  %269 = call noalias ptr @_emalloc_896()
  br label %390

270:                                              ; preds = %259
  %271 = load i32, ptr %5, align 4
  %272 = zext i32 %271 to i64
  %273 = mul i64 %272, 4
  %274 = load i32, ptr %4, align 4
  %275 = zext i32 %274 to i64
  %276 = mul i64 %275, 16
  %277 = add i64 %273, %276
  %278 = icmp ule i64 %277, 1024
  br i1 %278, label %279, label %281

279:                                              ; preds = %270
  %280 = call noalias ptr @_emalloc_1024()
  br label %388

281:                                              ; preds = %270
  %282 = load i32, ptr %5, align 4
  %283 = zext i32 %282 to i64
  %284 = mul i64 %283, 4
  %285 = load i32, ptr %4, align 4
  %286 = zext i32 %285 to i64
  %287 = mul i64 %286, 16
  %288 = add i64 %284, %287
  %289 = icmp ule i64 %288, 1280
  br i1 %289, label %290, label %292

290:                                              ; preds = %281
  %291 = call noalias ptr @_emalloc_1280()
  br label %386

292:                                              ; preds = %281
  %293 = load i32, ptr %5, align 4
  %294 = zext i32 %293 to i64
  %295 = mul i64 %294, 4
  %296 = load i32, ptr %4, align 4
  %297 = zext i32 %296 to i64
  %298 = mul i64 %297, 16
  %299 = add i64 %295, %298
  %300 = icmp ule i64 %299, 1536
  br i1 %300, label %301, label %303

301:                                              ; preds = %292
  %302 = call noalias ptr @_emalloc_1536()
  br label %384

303:                                              ; preds = %292
  %304 = load i32, ptr %5, align 4
  %305 = zext i32 %304 to i64
  %306 = mul i64 %305, 4
  %307 = load i32, ptr %4, align 4
  %308 = zext i32 %307 to i64
  %309 = mul i64 %308, 16
  %310 = add i64 %306, %309
  %311 = icmp ule i64 %310, 1792
  br i1 %311, label %312, label %314

312:                                              ; preds = %303
  %313 = call noalias ptr @_emalloc_1792()
  br label %382

314:                                              ; preds = %303
  %315 = load i32, ptr %5, align 4
  %316 = zext i32 %315 to i64
  %317 = mul i64 %316, 4
  %318 = load i32, ptr %4, align 4
  %319 = zext i32 %318 to i64
  %320 = mul i64 %319, 16
  %321 = add i64 %317, %320
  %322 = icmp ule i64 %321, 2048
  br i1 %322, label %323, label %325

323:                                              ; preds = %314
  %324 = call noalias ptr @_emalloc_2048()
  br label %380

325:                                              ; preds = %314
  %326 = load i32, ptr %5, align 4
  %327 = zext i32 %326 to i64
  %328 = mul i64 %327, 4
  %329 = load i32, ptr %4, align 4
  %330 = zext i32 %329 to i64
  %331 = mul i64 %330, 16
  %332 = add i64 %328, %331
  %333 = icmp ule i64 %332, 2560
  br i1 %333, label %334, label %336

334:                                              ; preds = %325
  %335 = call noalias ptr @_emalloc_2560()
  br label %378

336:                                              ; preds = %325
  %337 = load i32, ptr %5, align 4
  %338 = zext i32 %337 to i64
  %339 = mul i64 %338, 4
  %340 = load i32, ptr %4, align 4
  %341 = zext i32 %340 to i64
  %342 = mul i64 %341, 16
  %343 = add i64 %339, %342
  %344 = icmp ule i64 %343, 3072
  br i1 %344, label %345, label %347

345:                                              ; preds = %336
  %346 = call noalias ptr @_emalloc_3072()
  br label %376

347:                                              ; preds = %336
  %348 = load i32, ptr %5, align 4
  %349 = zext i32 %348 to i64
  %350 = mul i64 %349, 4
  %351 = load i32, ptr %4, align 4
  %352 = zext i32 %351 to i64
  %353 = mul i64 %352, 16
  %354 = add i64 %350, %353
  %355 = icmp ule i64 %354, 2093056
  br i1 %355, label %356, label %365

356:                                              ; preds = %347
  %357 = load i32, ptr %5, align 4
  %358 = zext i32 %357 to i64
  %359 = mul i64 %358, 4
  %360 = load i32, ptr %4, align 4
  %361 = zext i32 %360 to i64
  %362 = mul i64 %361, 16
  %363 = add i64 %359, %362
  %364 = call noalias ptr @_emalloc_large(i64 noundef %363) #12
  br label %374

365:                                              ; preds = %347
  %366 = load i32, ptr %5, align 4
  %367 = zext i32 %366 to i64
  %368 = mul i64 %367, 4
  %369 = load i32, ptr %4, align 4
  %370 = zext i32 %369 to i64
  %371 = mul i64 %370, 16
  %372 = add i64 %368, %371
  %373 = call noalias ptr @_emalloc_huge(i64 noundef %372) #12
  br label %374

374:                                              ; preds = %365, %356
  %375 = phi ptr [ %364, %356 ], [ %373, %365 ]
  br label %376

376:                                              ; preds = %374, %345
  %377 = phi ptr [ %346, %345 ], [ %375, %374 ]
  br label %378

378:                                              ; preds = %376, %334
  %379 = phi ptr [ %335, %334 ], [ %377, %376 ]
  br label %380

380:                                              ; preds = %378, %323
  %381 = phi ptr [ %324, %323 ], [ %379, %378 ]
  br label %382

382:                                              ; preds = %380, %312
  %383 = phi ptr [ %313, %312 ], [ %381, %380 ]
  br label %384

384:                                              ; preds = %382, %301
  %385 = phi ptr [ %302, %301 ], [ %383, %382 ]
  br label %386

386:                                              ; preds = %384, %290
  %387 = phi ptr [ %291, %290 ], [ %385, %384 ]
  br label %388

388:                                              ; preds = %386, %279
  %389 = phi ptr [ %280, %279 ], [ %387, %386 ]
  br label %390

390:                                              ; preds = %388, %268
  %391 = phi ptr [ %269, %268 ], [ %389, %388 ]
  br label %392

392:                                              ; preds = %390, %257
  %393 = phi ptr [ %258, %257 ], [ %391, %390 ]
  br label %394

394:                                              ; preds = %392, %246
  %395 = phi ptr [ %247, %246 ], [ %393, %392 ]
  br label %396

396:                                              ; preds = %394, %235
  %397 = phi ptr [ %236, %235 ], [ %395, %394 ]
  br label %398

398:                                              ; preds = %396, %224
  %399 = phi ptr [ %225, %224 ], [ %397, %396 ]
  br label %400

400:                                              ; preds = %398, %213
  %401 = phi ptr [ %214, %213 ], [ %399, %398 ]
  br label %402

402:                                              ; preds = %400, %202
  %403 = phi ptr [ %203, %202 ], [ %401, %400 ]
  br label %404

404:                                              ; preds = %402, %191
  %405 = phi ptr [ %192, %191 ], [ %403, %402 ]
  br label %406

406:                                              ; preds = %404, %180
  %407 = phi ptr [ %181, %180 ], [ %405, %404 ]
  br label %408

408:                                              ; preds = %406, %169
  %409 = phi ptr [ %170, %169 ], [ %407, %406 ]
  br label %410

410:                                              ; preds = %408, %158
  %411 = phi ptr [ %159, %158 ], [ %409, %408 ]
  br label %412

412:                                              ; preds = %410, %147
  %413 = phi ptr [ %148, %147 ], [ %411, %410 ]
  br label %414

414:                                              ; preds = %412, %136
  %415 = phi ptr [ %137, %136 ], [ %413, %412 ]
  br label %416

416:                                              ; preds = %414, %125
  %417 = phi ptr [ %126, %125 ], [ %415, %414 ]
  br label %418

418:                                              ; preds = %416, %114
  %419 = phi ptr [ %115, %114 ], [ %417, %416 ]
  br label %420

420:                                              ; preds = %418, %103
  %421 = phi ptr [ %104, %103 ], [ %419, %418 ]
  br label %422

422:                                              ; preds = %420, %92
  %423 = phi ptr [ %93, %92 ], [ %421, %420 ]
  br label %424

424:                                              ; preds = %422, %81
  %425 = phi ptr [ %82, %81 ], [ %423, %422 ]
  br label %426

426:                                              ; preds = %424, %70
  %427 = phi ptr [ %71, %70 ], [ %425, %424 ]
  br label %428

428:                                              ; preds = %426, %59
  %429 = phi ptr [ %60, %59 ], [ %427, %426 ]
  br label %430

430:                                              ; preds = %428, %48
  %431 = phi ptr [ %49, %48 ], [ %429, %428 ]
  br label %432

432:                                              ; preds = %430, %37
  %433 = phi ptr [ %38, %37 ], [ %431, %430 ]
  br label %434

434:                                              ; preds = %432, %26
  %435 = phi ptr [ %27, %26 ], [ %433, %432 ]
  br label %445

436:                                              ; preds = %2
  %437 = load i32, ptr %5, align 4
  %438 = zext i32 %437 to i64
  %439 = mul i64 %438, 4
  %440 = load i32, ptr %4, align 4
  %441 = zext i32 %440 to i64
  %442 = mul i64 %441, 16
  %443 = add i64 %439, %442
  %444 = call noalias ptr @_emalloc(i64 noundef %443) #12
  br label %445

445:                                              ; preds = %436, %434
  %446 = phi ptr [ %435, %434 ], [ %444, %436 ]
  store ptr %446, ptr %6, align 8
  %447 = load ptr, ptr %6, align 8
  %448 = load i32, ptr %5, align 4
  %449 = zext i32 %448 to i64
  %450 = mul i64 %449, 4
  call void @llvm.memset.p0.i64(ptr align 1 %447, i8 -1, i64 %450, i1 false)
  %451 = load ptr, ptr %6, align 8
  %452 = load i32, ptr %5, align 4
  %453 = zext i32 %452 to i64
  %454 = mul i64 %453, 4
  %455 = getelementptr inbounds i8, ptr %451, i64 %454
  %456 = load ptr, ptr %3, align 8
  %457 = getelementptr inbounds %struct._ir_hashtab, ptr %456, i32 0, i32 0
  store ptr %455, ptr %457, align 8
  %458 = load i32, ptr %5, align 4
  %459 = sub nsw i32 0, %458
  %460 = load ptr, ptr %3, align 8
  %461 = getelementptr inbounds %struct._ir_hashtab, ptr %460, i32 0, i32 1
  store i32 %459, ptr %461, align 8
  %462 = load i32, ptr %4, align 4
  %463 = load ptr, ptr %3, align 8
  %464 = getelementptr inbounds %struct._ir_hashtab, ptr %463, i32 0, i32 2
  store i32 %462, ptr %464, align 4
  %465 = load ptr, ptr %3, align 8
  %466 = getelementptr inbounds %struct._ir_hashtab, ptr %465, i32 0, i32 3
  store i32 0, ptr %466, align 8
  %467 = load ptr, ptr %3, align 8
  %468 = getelementptr inbounds %struct._ir_hashtab, ptr %467, i32 0, i32 4
  store i32 0, ptr %468, align 4
  ret void
}