; Function Attrs: nounwind uwtable
define hidden void @ir_addrtab_init(ptr nocapture noundef writeonly %0, i32 noundef %1) local_unnamed_addr #0 {
  %3 = add i32 %1, -1
  %4 = lshr i32 %3, 1
  %5 = or i32 %4, %3
  %6 = lshr i32 %5, 2
  %7 = or i32 %6, %5
  %8 = lshr i32 %7, 4
  %9 = or i32 %8, %7
  %10 = lshr i32 %9, 8
  %11 = or i32 %10, %9
  %12 = lshr i32 %11, 16
  %13 = or i32 %12, %11
  %14 = add i32 %13, 1
  %15 = tail call i32 @llvm.umax.i32(i32 %14, i32 4)
  %16 = zext i32 %15 to i64
  %17 = shl nuw nsw i64 %16, 2
  %18 = zext i32 %1 to i64
  %19 = shl nuw nsw i64 %18, 4
  %20 = add nuw nsw i64 %17, %19
  %21 = tail call noalias ptr @_emalloc(i64 noundef %20) #23
  tail call void @llvm.memset.p0.i64(ptr noundef nonnull align 1 dereferenceable(1) %21, i8 -1, i64 %17, i1 false)
  %22 = getelementptr inbounds i8, ptr %21, i64 %17
  store ptr %22, ptr %0, align 8
  %23 = sub nsw i32 0, %15
  %24 = getelementptr inbounds i8, ptr %0, i64 8
  store i32 %23, ptr %24, align 8
  %25 = getelementptr inbounds i8, ptr %0, i64 12
  store i32 %1, ptr %25, align 4
  %26 = getelementptr inbounds i8, ptr %0, i64 16
  store i32 0, ptr %26, align 8
  %27 = getelementptr inbounds i8, ptr %0, i64 20
  store i32 0, ptr %27, align 4
  ret void
}